; Function Attrs: nounwind uwtable
define void @b2CollidePolygonAndCapsule(ptr dead_on_unwind noalias writable sret(%struct.b2Manifold) align 4 captures(none) %0, ptr noundef readonly captures(none) %1, <2 x float> %2, <2 x float> %3, ptr noundef readonly captures(none) %4, <2 x float> %5, <2 x float> %6) local_unnamed_addr #6 {
  %8 = alloca %struct.b2Polygon, align 8
  call void @llvm.lifetime.start.p0(i64 144, ptr nonnull %8) #10
  %9 = getelementptr inbounds nuw i8, ptr %4, i64 8
  %10 = getelementptr inbounds nuw i8, ptr %4, i64 16
  %11 = load float, ptr %10, align 4, !tbaa !17
  %12 = load <2 x float>, ptr %4, align 4
  %13 = load <2 x float>, ptr %9, align 4
  %14 = getelementptr inbounds nuw i8, ptr %8, i64 16
  call void @llvm.memset.p0.i64(ptr noundef nonnull align 8 dereferenceable(144) %14, i8 0, i64 112, i1 false), !alias.scope !26
  store <2 x float> %12, ptr %8, align 8, !alias.scope !26
  %15 = getelementptr inbounds nuw i8, ptr %8, i64 8
  store <2 x float> %13, ptr %15, align 8, !alias.scope !26
  %16 = getelementptr inbounds nuw i8, ptr %8, i64 128
  %.sroa.04.0.vec.extract.i.i = extractelement <2 x float> %12, i64 0
  %17 = fmul float %.sroa.04.0.vec.extract.i.i, 5.000000e-01
  %.sroa.0.0.vec.extract.i.i = extractelement <2 x float> %13, i64 0
  %18 = fmul float %.sroa.0.0.vec.extract.i.i, 5.000000e-01
  %19 = fadd float %17, %18
  %.sroa.05.0.vec.insert.i.i = insertelement <2 x float> poison, float %19, i64 0
  %.sroa.04.4.vec.extract.i.i = extractelement <2 x float> %12, i64 1
  %20 = fmul float %.sroa.04.4.vec.extract.i.i, 5.000000e-01
  %.sroa.0.4.vec.extract.i.i = extractelement <2 x float> %13, i64 1
  %21 = fmul float %.sroa.0.4.vec.extract.i.i, 5.000000e-01
  %22 = fadd float %20, %21
  %.sroa.05.4.vec.insert.i.i = insertelement <2 x float> %.sroa.05.0.vec.insert.i.i, float %22, i64 1
  store <2 x float> %.sroa.05.4.vec.insert.i.i, ptr %16, align 8, !alias.scope !26
  %23 = fsub <2 x float> %13, %12
  %24 = fsub float %.sroa.0.4.vec.extract.i.i, %.sroa.04.4.vec.extract.i.i
  %25 = fmul <2 x float> %23, %23
  %26 = extractelement <2 x float> %25, i64 0
  %27 = fmul float %24, %24
  %28 = fadd float %26, %27
  %sqrt.i.i = tail call float @llvm.sqrt.f32(float %28)
  %29 = fcmp olt float %sqrt.i.i, 0x3E80000000000000
  br i1 %29, label %b2MakeCapsule.exit, label %30

30:                                               ; preds = %7
  %31 = extractelement <2 x float> %23, i64 0
  %32 = fdiv float 1.000000e+00, %sqrt.i.i
  %33 = fmul float %31, %32
  %.sroa.012.0.vec.insert.i.i = insertelement <2 x float> poison, float %33, i64 0
  %34 = fmul float %24, %32
  %.sroa.012.4.vec.insert.i.i = insertelement <2 x float> %.sroa.012.0.vec.insert.i.i, float %34, i64 1
  br label %b2MakeCapsule.exit

b2MakeCapsule.exit:                               ; preds = %7, %30
  %.sroa.012.0.i.i = phi <2 x float> [ %.sroa.012.4.vec.insert.i.i, %30 ], [ zeroinitializer, %7 ]
  %.sroa.0.4.vec.extract.i13.i = extractelement <2 x float> %.sroa.012.0.i.i, i64 1
  %.sroa.01.0.vec.insert.i.i = insertelement <2 x float> poison, float %.sroa.0.4.vec.extract.i13.i, i64 0
  %.sroa.0.0.vec.extract.i14.i = extractelement <2 x float> %.sroa.012.0.i.i, i64 0
  %35 = fneg float %.sroa.0.0.vec.extract.i14.i
  %.sroa.01.4.vec.insert.i.i = insertelement <2 x float> %.sroa.01.0.vec.insert.i.i, float %35, i64 1
  %36 = getelementptr inbounds nuw i8, ptr %8, i64 64
  store <2 x float> %.sroa.01.4.vec.insert.i.i, ptr %36, align 8, !alias.scope !26
  %37 = getelementptr inbounds nuw i8, ptr %8, i64 72
  %38 = fneg float %.sroa.0.4.vec.extract.i13.i
  %.sroa.01.0.vec.insert.i16.i = insertelement <2 x float> poison, float %38, i64 0
  %.sroa.01.4.vec.insert.i18.i = shufflevector <2 x float> %.sroa.01.0.vec.insert.i16.i, <2 x float> %.sroa.012.0.i.i, <2 x i32> <i32 0, i32 2>
  store <2 x float> %.sroa.01.4.vec.insert.i18.i, ptr %37, align 8, !alias.scope !26
  %39 = getelementptr inbounds nuw i8, ptr %8, i64 140
  store i32 2, ptr %39, align 4, !tbaa !21, !alias.scope !26
  %40 = getelementptr inbounds nuw i8, ptr %8, i64 136
  store float %11, ptr %40, align 8, !tbaa !19, !alias.scope !26
  call void @b2CollidePolygons(ptr dead_on_unwind writable sret(%struct.b2Manifold) align 4 %0, ptr noundef %1, <2 x float> %2, <2 x float> %3, ptr noundef nonnull %8, <2 x float> %5, <2 x float> %6)
  call void @llvm.lifetime.end.p0(i64 144, ptr nonnull %8) #10
  ret void
}